; Function Attrs: mustprogress uwtable
define hidden void @_ZNK7datalog10lazy_table3endEv(ptr dead_on_unwind noalias writable sret(%"class.datalog::table_base::iterator") align 8 %0, ptr noundef nonnull readonly align 8 captures(none) dereferenceable(48) %1) unnamed_addr #3 align 2 {
  %3 = getelementptr inbounds nuw i8, ptr %1, i64 40
  %4 = load ptr, ptr %3, align 8, !tbaa !56
  %5 = getelementptr inbounds nuw i8, ptr %4, i64 40
  %6 = load ptr, ptr %5, align 8, !tbaa !51
  %.not.i.i = icmp eq ptr %6, null
  br i1 %.not.i.i, label %7, label %_ZNK7datalog10lazy_table4evalEv.exit

7:                                                ; preds = %2
  %8 = load ptr, ptr %4, align 8, !tbaa !27
  %9 = load ptr, ptr %8, align 8
  %10 = tail call noundef ptr %9(ptr noundef nonnull align 8 dereferenceable(48) %4)
  %11 = load ptr, ptr %5, align 8, !tbaa !51
  %.not.i.i.i = icmp eq ptr %11, null
  %.not3.i.i.i = icmp eq ptr %10, %11
  %or.cond.i.i.i = or i1 %.not.i.i.i, %.not3.i.i.i
  br i1 %or.cond.i.i.i, label %_ZN7datalog10scoped_relINS_10table_baseEEaSEPS1_.exit.i.i, label %12

12:                                               ; preds = %7
  tail call void @_ZN7datalog16universal_deleteEPNS_10table_baseE(ptr noundef nonnull %11)
  br label %_ZN7datalog10scoped_relINS_10table_baseEEaSEPS1_.exit.i.i

_ZN7datalog10scoped_relINS_10table_baseEEaSEPS1_.exit.i.i: ; preds = %12, %7
  store ptr %10, ptr %5, align 8, !tbaa !51
  br label %_ZNK7datalog10lazy_table4evalEv.exit

_ZNK7datalog10lazy_table4evalEv.exit:             ; preds = %2, %_ZN7datalog10scoped_relINS_10table_baseEEaSEPS1_.exit.i.i
  %13 = phi ptr [ %10, %_ZN7datalog10scoped_relINS_10table_baseEEaSEPS1_.exit.i.i ], [ %6, %2 ]
  %14 = load ptr, ptr %13, align 8, !tbaa !27
  %15 = getelementptr inbounds nuw i8, ptr %14, i64 208
  %16 = load ptr, ptr %15, align 8
  tail call void %16(ptr dead_on_unwind writable sret(%"class.datalog::table_base::iterator") align 8 %0, ptr noundef nonnull align 8 dereferenceable(36) %13)
  ret void
}